ARM GAS  C:\Users\conme\AppData\Local\Temp\cctFgczp.s 			page 1


   1              		.syntax unified
   2              		.cpu cortex-m3
   3              		.fpu softvfp
   4              		.eabi_attribute 20, 1
   5              		.eabi_attribute 21, 1
   6              		.eabi_attribute 23, 3
   7              		.eabi_attribute 24, 1
   8              		.eabi_attribute 25, 1
   9              		.eabi_attribute 26, 1
  10              		.eabi_attribute 30, 1
  11              		.eabi_attribute 34, 1
  12              		.eabi_attribute 18, 4
  13              		.thumb
  14              		.file	"main.c"
  15              		.text
  16              	.Ltext0:
  17              		.cfi_sections	.debug_frame
  18              		.section	.text._write,"ax",%progbits
  19              		.align	2
  20              		.global	_write
  21              		.thumb
  22              		.thumb_func
  23              		.type	_write, %function
  24              	_write:
  25              	.LFB64:
  26              		.file 1 "main.c"
   1:main.c        **** /**
   2:main.c        **** * @mainpage ZumoBot Project
   3:main.c        **** * @brief    You can make your own ZumoBot with various sensors.
   4:main.c        **** * @details  <br><br>
   5:main.c        ****     <p>
   6:main.c        ****     <B>General</B><br>
   7:main.c        ****     You will use Pololu Zumo Shields for your robot project with CY8CKIT-059(PSoC 5LP) from Cypress
   8:main.c        ****     library has basic methods of various sensors and communications so that you can make what you w
   9:main.c        ****     <br><br>
  10:main.c        ****     </p>
  11:main.c        ****     
  12:main.c        ****     <p>
  13:main.c        ****     <B>Sensors</B><br>
  14:main.c        ****     &nbsp;Included: <br>
  15:main.c        ****         &nbsp;&nbsp;&nbsp;&nbsp;LSM303D: Accelerometer & Magnetometer<br>
  16:main.c        ****         &nbsp;&nbsp;&nbsp;&nbsp;L3GD20H: Gyroscope<br>
  17:main.c        ****         &nbsp;&nbsp;&nbsp;&nbsp;Reflectance sensor<br>
  18:main.c        ****         &nbsp;&nbsp;&nbsp;&nbsp;Motors
  19:main.c        ****     &nbsp;Wii nunchuck<br>
  20:main.c        ****     &nbsp;TSOP-2236: IR Receiver<br>
  21:main.c        ****     &nbsp;HC-SR04: Ultrasonic sensor<br>
  22:main.c        ****     &nbsp;APDS-9301: Ambient light sensor<br>
  23:main.c        ****     &nbsp;IR LED <br><br><br>
  24:main.c        ****     </p>
  25:main.c        ****     
  26:main.c        ****     <p>
  27:main.c        ****     <B>Communication</B><br>
  28:main.c        ****     I2C, UART, Serial<br>
  29:main.c        ****     </p>
  30:main.c        **** */
  31:main.c        **** 
ARM GAS  C:\Users\conme\AppData\Local\Temp\cctFgczp.s 			page 2


  32:main.c        **** #include <project.h>
  33:main.c        **** #include <stdio.h>
  34:main.c        **** #include "Motor.h"
  35:main.c        **** #include "Ultra.h"
  36:main.c        **** #include "Nunchuk.h"
  37:main.c        **** #include "Reflectance.h"
  38:main.c        **** #include "I2C_made.h"
  39:main.c        **** #include "Gyro.h"
  40:main.c        **** #include "Accel_magnet.h"
  41:main.c        **** #include "IR.h"
  42:main.c        **** #include "Ambient.h"
  43:main.c        **** #include "Beep.h"
  44:main.c        **** 
  45:main.c        **** int P=0,I=0,D=0,p_err=0,Kp=100,Ki=0,Kd=50,count_zero=0,counter_ADC=0;
  46:main.c        **** 
  47:main.c        **** 
  48:main.c        **** int rread(void);
  49:main.c        **** int calError(int,int,int,int);
  50:main.c        **** int calPID(int);
  51:main.c        **** uint8 button;
  52:main.c        **** 
  53:main.c        **** /**
  54:main.c        ****  * @file    main.c
  55:main.c        ****  * @brief   
  56:main.c        ****  * @details  ** You should enable global interrupt for operating properly. **<br>&nbsp;&nbsp;&nbsp;
  57:main.c        **** */
  58:main.c        **** 
  59:main.c        **** 
  60:main.c        **** //battery level//
  61:main.c        **** /*int main()
  62:main.c        **** {
  63:main.c        ****     CyGlobalIntEnable; 
  64:main.c        ****     UART_1_Start();
  65:main.c        ****     ADC_Battery_Start();        
  66:main.c        ****     int16 adcresult =0;
  67:main.c        ****     float volts = 0.0;
  68:main.c        **** 
  69:main.c        ****     printf("\nBoot\n");
  70:main.c        **** 
  71:main.c        ****     //BatteryLed_Write(1); // Switch led on 
  72:main.c        ****     BatteryLed_Write(0); // Switch led off 
  73:main.c        ****     uint8 button;
  74:main.c        ****     //button = SW1_Read(); // read SW1 on pSoC board
  75:main.c        **** 
  76:main.c        ****     for(;;)
  77:main.c        ****     {
  78:main.c        ****         
  79:main.c        ****         ADC_Battery_StartConvert();
  80:main.c        ****         if(ADC_Battery_IsEndConversion(ADC_Battery_WAIT_FOR_RESULT)) {   // wait for get ADC conver
  81:main.c        ****             adcresult = ADC_Battery_GetResult16();
  82:main.c        ****             volts = ADC_Battery_CountsTo_Volts(adcresult);                  // convert value to Vol
  83:main.c        ****         
  84:main.c        ****             // If you want to print value
  85:main.c        ****             printf("%d %f\r\n",adcresult, volts);
  86:main.c        ****         }
  87:main.c        ****         CyDelay(500);
  88:main.c        ****         
ARM GAS  C:\Users\conme\AppData\Local\Temp\cctFgczp.s 			page 3


  89:main.c        ****     }
  90:main.c        ****  }   
  91:main.c        **** //*/
  92:main.c        **** 
  93:main.c        **** /*//ultra sonic sensor//
  94:main.c        **** int main()
  95:main.c        **** {
  96:main.c        ****     CyGlobalIntEnable; 
  97:main.c        ****     UART_1_Start();
  98:main.c        ****     Ultra_Start();                          // Ultra Sonic Start function
  99:main.c        ****     while(1) {
 100:main.c        ****         //If you want to print out the value  
 101:main.c        ****         printf("distance = %5.0f\r\n", Ultra_GetDistance());
 102:main.c        ****         CyDelay(1000);
 103:main.c        ****     }
 104:main.c        **** }   
 105:main.c        **** //*/
 106:main.c        **** 
 107:main.c        **** int main(){
 108:main.c        ****     struct sensors_ ref;
 109:main.c        ****     struct sensors_ dig;
 110:main.c        ****     CyGlobalIntEnable; 
 111:main.c        ****     UART_1_Start();
 112:main.c        ****     sensor_isr_StartEx(sensor_isr_handler);
 113:main.c        ****     CyDelay(5000);
 114:main.c        ****     reflectance_start();     
 115:main.c        ****     int16 adcresult =0;
 116:main.c        ****     float volts = 0.0;
 117:main.c        **** 
 118:main.c        ****     IR_led_Write(1);
 119:main.c        ****     for(;;)
 120:main.c        ****     {
 121:main.c        ****         button = SW1_Read();
 122:main.c        ****         printf("button %d\n",button);
 123:main.c        ****         counter_ADC++;
 124:main.c        ****         if(counter_ADC==10000){            
 125:main.c        ****             ADC_Battery_Start();   
 126:main.c        ****             ADC_Battery_StartConvert();
 127:main.c        ****             if(ADC_Battery_IsEndConversion(ADC_Battery_WAIT_FOR_RESULT)) {   // wait for get ADC co
 128:main.c        ****                 adcresult = ADC_Battery_GetResult16();
 129:main.c        ****                 volts = 1.5*ADC_Battery_CountsTo_Volts(adcresult);                  // convert valu
 130:main.c        ****             
 131:main.c        ****                 printf("%d %f\r\n",adcresult, volts);
 132:main.c        ****                 if(volts<4.0){
 133:main.c        ****                     motor_stop();
 134:main.c        ****                     return 0;
 135:main.c        ****                 }
 136:main.c        ****             }
 137:main.c        ****             counter_ADC=0;
 138:main.c        ****             ADC_Battery_StopConvert();
 139:main.c        ****             ADC_Battery_Stop();
 140:main.c        ****         }
 141:main.c        ****         reflectance_read(&ref);
 142:main.c        ****         reflectance_digital(&dig); 
 143:main.c        ****         /*printf("%d %d %d %d \r\n", ref.l3, ref.l1, ref.r1, ref.r3);       //print out each period
 144:main.c        ****              //print out 0 or 1 according to results of reflectance period
 145:main.c        ****         printf("%d %d %d %d \r\n", dig.l3, dig.l1, dig.r1, dig.r3);        //print out 0 or 1 accor
ARM GAS  C:\Users\conme\AppData\Local\Temp\cctFgczp.s 			page 4


 146:main.c        ****         */
 147:main.c        ****         int err = calError(dig.l3, dig.l1, dig.r1, dig.r3);
 148:main.c        ****         int motorSpeed = calPID(err);
 149:main.c        ****         
 150:main.c        ****         int rightMotorSpeed = 235 - motorSpeed;
 151:main.c        ****         int leftMotorSpeed = 235 + motorSpeed;
 152:main.c        ****         
 153:main.c        ****         if(err==9){
 154:main.c        ****            rightMotorSpeed = 255;
 155:main.c        ****            leftMotorSpeed = 255;
 156:main.c        ****         }
 157:main.c        ****         
 158:main.c        ****         if(rightMotorSpeed > 255)
 159:main.c        ****             rightMotorSpeed = 255;
 160:main.c        ****         if(rightMotorSpeed < 0)
 161:main.c        ****             rightMotorSpeed = 0;
 162:main.c        ****         if(leftMotorSpeed > 255)
 163:main.c        ****             leftMotorSpeed = 255;
 164:main.c        ****         if(leftMotorSpeed < 0)
 165:main.c        ****             leftMotorSpeed = 0;
 166:main.c        ****         
 167:main.c        ****         motor_turn(leftMotorSpeed,rightMotorSpeed,0);
 168:main.c        ****         
 169:main.c        ****         if(count_zero>1000){
 170:main.c        ****             motor_stop();
 171:main.c        ****             return 0;
 172:main.c        ****         }
 173:main.c        ****         else
 174:main.c        ****             motor_start();
 175:main.c        ****         
 176:main.c        ****         CyDelay(1);
 177:main.c        ****     }
 178:main.c        ****     return 0;
 179:main.c        **** }
 180:main.c        **** 
 181:main.c        **** /*
 182:main.c        **** int main(){
 183:main.c        ****     CyGlobalIntEnable; 
 184:main.c        ****     UART_1_Start();
 185:main.c        ****     CyDelay(1000);
 186:main.c        ****     motor_start();
 187:main.c        ****     //motor_forward(255,2000);
 188:main.c        ****     motor_forward(255,2000);
 189:main.c        ****     motor_turn_90(150,335);
 190:main.c        ****     motor_forward(255,2000);
 191:main.c        ****     motor_turn_90(150,335);
 192:main.c        ****     motor_forward(255,2000);
 193:main.c        ****     motor_turn_90(150,750);
 194:main.c        ****     motor_forward(255,2000);
 195:main.c        ****     motor_stop();
 196:main.c        ****     return 0;
 197:main.c        **** }
 198:main.c        **** */
 199:main.c        **** /*//nunchuk//
 200:main.c        **** int main()
 201:main.c        **** {
 202:main.c        ****     CyGlobalIntEnable; 
ARM GAS  C:\Users\conme\AppData\Local\Temp\cctFgczp.s 			page 5


 203:main.c        ****     UART_1_Start();
 204:main.c        ****   
 205:main.c        ****     nunchuk_start();
 206:main.c        ****     nunchuk_init();
 207:main.c        ****     
 208:main.c        ****     for(;;)
 209:main.c        ****     {    
 210:main.c        ****         nunchuk_read();
 211:main.c        ****     }
 212:main.c        **** }   
 213:main.c        **** //*/
 214:main.c        **** 
 215:main.c        **** 
 216:main.c        **** /*//IR receiver//
 217:main.c        **** int main()
 218:main.c        **** {
 219:main.c        ****     CyGlobalIntEnable; 
 220:main.c        ****     UART_1_Start();
 221:main.c        ****     
 222:main.c        ****     unsigned int IR_val; 
 223:main.c        ****     
 224:main.c        ****     for(;;)
 225:main.c        ****     {
 226:main.c        ****        IR_val = get_IR();
 227:main.c        ****        printf("%x\r\n\n",IR_val);
 228:main.c        ****     }    
 229:main.c        ****  }   
 230:main.c        **** //*/
 231:main.c        **** 
 232:main.c        **** 
 233:main.c        **** /*//Ambient light sensor//
 234:main.c        **** int main()
 235:main.c        **** {
 236:main.c        ****     CyGlobalIntEnable; 
 237:main.c        ****     UART_1_Start();
 238:main.c        ****     
 239:main.c        ****     I2C_Start();
 240:main.c        ****     
 241:main.c        ****     I2C_write(0x29,0x80,0x00);          // set to power down
 242:main.c        ****     I2C_write(0x29,0x80,0x03);          // set to power on
 243:main.c        ****     
 244:main.c        ****     for(;;)
 245:main.c        ****     {    
 246:main.c        ****         uint8 Data0Low,Data0High,Data1Low,Data1High;
 247:main.c        ****         Data0Low = I2C_read(0x29,CH0_L);
 248:main.c        ****         Data0High = I2C_read(0x29,CH0_H);
 249:main.c        ****         Data1Low = I2C_read(0x29,CH1_L);
 250:main.c        ****         Data1High = I2C_read(0x29,CH1_H);
 251:main.c        ****         
 252:main.c        ****         uint8 CH0, CH1;
 253:main.c        ****         CH0 = convert_raw(Data0Low,Data0High);      // combine Data0
 254:main.c        ****         CH1 = convert_raw(Data1Low,Data1High);      // combine Data1
 255:main.c        **** 
 256:main.c        ****         double Ch0 = CH0;
 257:main.c        ****         double Ch1 = CH1;
 258:main.c        ****         
 259:main.c        ****         double data = 0;
ARM GAS  C:\Users\conme\AppData\Local\Temp\cctFgczp.s 			page 6


 260:main.c        ****         data = getLux(Ch0,Ch1);
 261:main.c        ****         
 262:main.c        ****         // If you want to print out data
 263:main.c        ****         //printf("%lf\r\n",data);    
 264:main.c        ****     }    
 265:main.c        ****  }   
 266:main.c        **** //*/
 267:main.c        **** 
 268:main.c        **** 
 269:main.c        **** /*//accelerometer//
 270:main.c        **** int main()
 271:main.c        **** {
 272:main.c        ****     CyGlobalIntEnable; 
 273:main.c        ****     UART_1_Start();
 274:main.c        ****   
 275:main.c        ****     I2C_Start();
 276:main.c        ****   
 277:main.c        ****     uint8 X_L_A, X_H_A, Y_L_A, Y_H_A, Z_L_A, Z_H_A;
 278:main.c        ****     int16 X_AXIS_A, Y_AXIS_A, Z_AXIS_A;
 279:main.c        ****     
 280:main.c        ****     I2C_write(ACCEL_MAG_ADDR, ACCEL_CTRL1_REG, 0x37);           // set accelerometer & magnetometer
 281:main.c        ****     I2C_write(ACCEL_MAG_ADDR, ACCEL_CTRL7_REG, 0x22);
 282:main.c        ****     
 283:main.c        ****     
 284:main.c        ****     for(;;)
 285:main.c        ****     {
 286:main.c        ****         //print out accelerometer output
 287:main.c        ****         X_L_A = I2C_read(ACCEL_MAG_ADDR, OUT_X_L_A);
 288:main.c        ****         X_H_A = I2C_read(ACCEL_MAG_ADDR, OUT_X_H_A);
 289:main.c        ****         X_AXIS_A = convert_raw(X_L_A, X_H_A);
 290:main.c        ****         
 291:main.c        ****         Y_L_A = I2C_read(ACCEL_MAG_ADDR, OUT_Y_L_A);
 292:main.c        ****         Y_H_A = I2C_read(ACCEL_MAG_ADDR, OUT_Y_H_A);
 293:main.c        ****         Y_AXIS_A = convert_raw(Y_L_A, Y_H_A);
 294:main.c        ****         
 295:main.c        ****         Z_L_A = I2C_read(ACCEL_MAG_ADDR, OUT_Z_L_A);
 296:main.c        ****         Z_H_A = I2C_read(ACCEL_MAG_ADDR, OUT_Z_H_A);
 297:main.c        ****         Z_AXIS_A = convert_raw(Z_L_A, Z_H_A);
 298:main.c        ****         
 299:main.c        ****         printf("ACCEL: %d %d %d %d %d %d \r\n", X_L_A, X_H_A, Y_L_A, Y_H_A, Z_L_A, Z_H_A);
 300:main.c        ****         value_convert_accel(X_AXIS_A, Y_AXIS_A, Z_AXIS_A);
 301:main.c        ****         printf("\n");
 302:main.c        ****         
 303:main.c        ****         CyDelay(50);
 304:main.c        ****     }
 305:main.c        **** }   
 306:main.c        **** //*/
 307:main.c        **** 
 308:main.c        **** 
 309:main.c        **** /*//reflectance//
 310:main.c        **** int main()
 311:main.c        **** {
 312:main.c        ****     struct sensors_ ref;
 313:main.c        ****     struct sensors_ dig;
 314:main.c        ****     CyGlobalIntEnable; 
 315:main.c        ****     UART_1_Start();
 316:main.c        ****   
ARM GAS  C:\Users\conme\AppData\Local\Temp\cctFgczp.s 			page 7


 317:main.c        ****     sensor_isr_StartEx(sensor_isr_handler);
 318:main.c        ****     
 319:main.c        ****     reflectance_start();
 320:main.c        **** 
 321:main.c        ****     IR_led_Write(1);
 322:main.c        ****     for(;;)
 323:main.c        ****     {
 324:main.c        ****         reflectance_read(&ref);
 325:main.c        ****         printf("%d %d %d %d \r\n", ref.l3, ref.l1, ref.r1, ref.r3);       //print out each period o
 326:main.c        ****         reflectance_digital(&dig);      //print out 0 or 1 according to results of reflectance peri
 327:main.c        ****         printf("%d %d %d %d \r\n", dig.l3, dig.l1, dig.r1, dig.r3);        //print out 0 or 1 accor
 328:main.c        ****         
 329:main.c        ****         CyDelay(500);
 330:main.c        ****     }
 331:main.c        **** }   
 332:main.c        **** //*/
 333:main.c        **** 
 334:main.c        ****  /* //motor//
 335:main.c        **** int main()
 336:main.c        **** {
 337:main.c        ****     CyGlobalIntEnable; 
 338:main.c        ****     UART_1_Start();
 339:main.c        **** 
 340:main.c        ****     motor_start();              // motor start
 341:main.c        **** 
 342:main.c        ****     motor_forward(100,2000);     // moving forward
 343:main.c        ****     motor_turn(200,50,2000);     // turn
 344:main.c        ****     motor_turn(50,200,2000);     // turn
 345:main.c        ****     motor_backward(100,2000);    // movinb backward
 346:main.c        ****        
 347:main.c        ****     motor_stop();               // motor stop
 348:main.c        ****     
 349:main.c        ****     for(;;)
 350:main.c        ****     {
 351:main.c        **** 
 352:main.c        ****     }
 353:main.c        **** }
 354:main.c        **** //*/
 355:main.c        ****     
 356:main.c        **** 
 357:main.c        **** /*//gyroscope//
 358:main.c        **** int main()
 359:main.c        **** {
 360:main.c        ****     CyGlobalIntEnable; 
 361:main.c        ****     UART_1_Start();
 362:main.c        ****   
 363:main.c        ****     I2C_Start();
 364:main.c        ****   
 365:main.c        ****     uint8 X_L_G, X_H_G, Y_L_G, Y_H_G, Z_L_G, Z_H_G;
 366:main.c        ****     int16 X_AXIS_G, Y_AXIS_G, Z_AXIS_G;
 367:main.c        ****     
 368:main.c        ****     I2C_write(GYRO_ADDR, GYRO_CTRL1_REG, 0x0F);             // set gyroscope into active mode
 369:main.c        ****     I2C_write(GYRO_ADDR, GYRO_CTRL4_REG, 0x30);             // set full scale selection to 2000dps 
 370:main.c        ****     
 371:main.c        ****     for(;;)
 372:main.c        ****     {
 373:main.c        ****         //print out gyroscope output
ARM GAS  C:\Users\conme\AppData\Local\Temp\cctFgczp.s 			page 8


 374:main.c        ****         X_L_G = I2C_read(GYRO_ADDR, OUT_X_AXIS_L);
 375:main.c        ****         X_H_G = I2C_read(GYRO_ADDR, OUT_X_AXIS_H);
 376:main.c        ****         X_AXIS_G = convert_raw(X_H_G, X_L_G);
 377:main.c        ****         
 378:main.c        ****         
 379:main.c        ****         Y_L_G = I2C_read(GYRO_ADDR, OUT_Y_AXIS_L);
 380:main.c        ****         Y_H_G = I2C_read(GYRO_ADDR, OUT_Y_AXIS_H);
 381:main.c        ****         Y_AXIS_G = convert_raw(Y_H_G, Y_L_G);
 382:main.c        ****         
 383:main.c        ****         
 384:main.c        ****         Z_L_G = I2C_read(GYRO_ADDR, OUT_Z_AXIS_L);
 385:main.c        ****         Z_H_G = I2C_read(GYRO_ADDR, OUT_Z_AXIS_H);
 386:main.c        ****         Z_AXIS_G = convert_raw(Z_H_G, Z_L_G);
 387:main.c        ****      
 388:main.c        ****         // If you want to print value
 389:main.c        ****         printf("%d %d %d \r\n", X_AXIS_G, Y_AXIS_G, Z_AXIS_G);
 390:main.c        ****         CyDelay(50);
 391:main.c        ****     }
 392:main.c        **** }   
 393:main.c        **** //*/
 394:main.c        **** 
 395:main.c        **** 
 396:main.c        **** /*//magnetometer//
 397:main.c        **** int main()
 398:main.c        **** {
 399:main.c        ****     CyGlobalIntEnable; 
 400:main.c        ****     UART_1_Start();
 401:main.c        ****   
 402:main.c        ****     I2C_Start();
 403:main.c        ****    
 404:main.c        ****     uint8 X_L_M, X_H_M, Y_L_M, Y_H_M, Z_L_M, Z_H_M;
 405:main.c        ****     int16 X_AXIS, Y_AXIS, Z_AXIS;
 406:main.c        ****     
 407:main.c        ****     I2C_write(GYRO_ADDR, GYRO_CTRL1_REG, 0x0F);             // set gyroscope into active mode
 408:main.c        ****     I2C_write(GYRO_ADDR, GYRO_CTRL4_REG, 0x30);             // set full scale selection to 2000dps
 409:main.c        ****     I2C_write(ACCEL_MAG_ADDR, ACCEL_CTRL1_REG, 0x37);           // set accelerometer & magnetometer
 410:main.c        ****     I2C_write(ACCEL_MAG_ADDR, ACCEL_CTRL7_REG, 0x22);
 411:main.c        ****     
 412:main.c        ****     
 413:main.c        ****     for(;;)
 414:main.c        ****     {
 415:main.c        ****         X_L_M = I2C_read(ACCEL_MAG_ADDR, OUT_X_L_M);
 416:main.c        ****         X_H_M = I2C_read(ACCEL_MAG_ADDR, OUT_X_H_M);
 417:main.c        ****         X_AXIS = convert_raw(X_L_M, X_H_M);
 418:main.c        ****         
 419:main.c        ****         Y_L_M = I2C_read(ACCEL_MAG_ADDR, OUT_Y_L_M);
 420:main.c        ****         Y_H_M = I2C_read(ACCEL_MAG_ADDR, OUT_Y_H_M);
 421:main.c        ****         Y_AXIS = convert_raw(Y_L_M, Y_H_M);
 422:main.c        ****         
 423:main.c        ****         Z_L_M = I2C_read(ACCEL_MAG_ADDR, OUT_Z_L_M);
 424:main.c        ****         Z_H_M = I2C_read(ACCEL_MAG_ADDR, OUT_Z_H_M);
 425:main.c        ****         Z_AXIS = convert_raw(Z_L_M, Z_H_M);
 426:main.c        ****         
 427:main.c        ****         heading(X_AXIS, Y_AXIS);
 428:main.c        ****         printf("MAGNET: %d %d %d %d %d %d \r\n", X_L_M, X_H_M, Y_L_M, Y_H_M, Z_L_M, Z_H_M);
 429:main.c        ****         printf("%d %d %d \r\n", X_AXIS,Y_AXIS, Z_AXIS);
 430:main.c        ****         CyDelay(50);      
ARM GAS  C:\Users\conme\AppData\Local\Temp\cctFgczp.s 			page 9


 431:main.c        ****     }
 432:main.c        **** }   
 433:main.c        **** //*/
 434:main.c        **** 
 435:main.c        **** 
 436:main.c        **** #if 0
 437:main.c        **** int rread(void)
 438:main.c        **** {
 439:main.c        ****     SC0_SetDriveMode(PIN_DM_STRONG);
 440:main.c        ****     SC0_Write(1);
 441:main.c        ****     CyDelayUs(10);
 442:main.c        ****     SC0_SetDriveMode(PIN_DM_DIG_HIZ);
 443:main.c        ****     Timer_1_Start();
 444:main.c        ****     uint16_t start = Timer_1_ReadCounter();
 445:main.c        ****     uint16_t end = 0;
 446:main.c        ****     while(!(Timer_1_ReadStatusRegister() & Timer_1_STATUS_TC)) {
 447:main.c        ****         if(SC0_Read() == 0 && end == 0) {
 448:main.c        ****             end = Timer_1_ReadCounter();
 449:main.c        ****         }
 450:main.c        ****     }
 451:main.c        ****     Timer_1_Stop();
 452:main.c        ****     
 453:main.c        ****     return (start - end);
 454:main.c        **** }
 455:main.c        **** #endif
 456:main.c        **** 
 457:main.c        **** /* Don't remove the functions below */
 458:main.c        **** int _write(int file, char *ptr, int len)
 459:main.c        **** {
  27              		.loc 1 459 0
  28              		.cfi_startproc
  29              		@ args = 0, pretend = 0, frame = 0
  30              		@ frame_needed = 0, uses_anonymous_args = 0
  31              	.LVL0:
  32 0000 F8B5     		push	{r3, r4, r5, r6, r7, lr}
  33              		.cfi_def_cfa_offset 24
  34              		.cfi_offset 3, -24
  35              		.cfi_offset 4, -20
  36              		.cfi_offset 5, -16
  37              		.cfi_offset 6, -12
  38              		.cfi_offset 7, -8
  39              		.cfi_offset 14, -4
  40 0002 0C46     		mov	r4, r1
  41 0004 1746     		mov	r7, r2
  42              	.LVL1:
 460:main.c        ****     (void)file; /* Parameter is not used, suppress unused argument warning */
 461:main.c        **** 	int n;
 462:main.c        **** 	for(n = 0; n < len; n++) {
  43              		.loc 1 462 0
  44 0006 0025     		movs	r5, #0
  45 0008 0BE0     		b	.L2
  46              	.LVL2:
  47              	.L4:
 463:main.c        ****         if(*ptr == '\n') UART_1_PutChar('\r');
  48              		.loc 1 463 0
  49 000a 2378     		ldrb	r3, [r4]	@ zero_extendqisi2
  50 000c 0A2B     		cmp	r3, #10
ARM GAS  C:\Users\conme\AppData\Local\Temp\cctFgczp.s 			page 10


  51 000e 02D1     		bne	.L3
  52              		.loc 1 463 0 is_stmt 0 discriminator 1
  53 0010 0D20     		movs	r0, #13
  54 0012 FFF7FEFF 		bl	UART_1_PutChar
  55              	.LVL3:
  56              	.L3:
 464:main.c        **** 		UART_1_PutChar(*ptr++);
  57              		.loc 1 464 0 is_stmt 1 discriminator 2
  58 0016 661C     		adds	r6, r4, #1
  59              	.LVL4:
  60 0018 2078     		ldrb	r0, [r4]	@ zero_extendqisi2
  61 001a FFF7FEFF 		bl	UART_1_PutChar
  62              	.LVL5:
 462:main.c        ****         if(*ptr == '\n') UART_1_PutChar('\r');
  63              		.loc 1 462 0 discriminator 2
  64 001e 0135     		adds	r5, r5, #1
  65              	.LVL6:
  66              		.loc 1 464 0 discriminator 2
  67 0020 3446     		mov	r4, r6
  68              	.LVL7:
  69              	.L2:
 462:main.c        ****         if(*ptr == '\n') UART_1_PutChar('\r');
  70              		.loc 1 462 0 discriminator 1
  71 0022 BD42     		cmp	r5, r7
  72 0024 F1DB     		blt	.L4
 465:main.c        **** 	}
 466:main.c        **** 	return len;
 467:main.c        **** }
  73              		.loc 1 467 0
  74 0026 3846     		mov	r0, r7
  75 0028 F8BD     		pop	{r3, r4, r5, r6, r7, pc}
  76              		.cfi_endproc
  77              	.LFE64:
  78              		.size	_write, .-_write
  79 002a 00BF     		.section	.text._read,"ax",%progbits
  80              		.align	2
  81              		.global	_read
  82              		.thumb
  83              		.thumb_func
  84              		.type	_read, %function
  85              	_read:
  86              	.LFB65:
 468:main.c        **** 
 469:main.c        **** int _read (int file, char *ptr, int count)
 470:main.c        **** {
  87              		.loc 1 470 0
  88              		.cfi_startproc
  89              		@ args = 0, pretend = 0, frame = 0
  90              		@ frame_needed = 0, uses_anonymous_args = 0
  91              	.LVL8:
  92 0000 F8B5     		push	{r3, r4, r5, r6, r7, lr}
  93              		.cfi_def_cfa_offset 24
  94              		.cfi_offset 3, -24
  95              		.cfi_offset 4, -20
  96              		.cfi_offset 5, -16
  97              		.cfi_offset 6, -12
  98              		.cfi_offset 7, -8
ARM GAS  C:\Users\conme\AppData\Local\Temp\cctFgczp.s 			page 11


  99              		.cfi_offset 14, -4
 100 0002 0F46     		mov	r7, r1
 101 0004 1446     		mov	r4, r2
 102              	.LVL9:
 471:main.c        ****     int chs = 0;
 103              		.loc 1 471 0
 104 0006 0026     		movs	r6, #0
 472:main.c        ****     char ch;
 473:main.c        ****  
 474:main.c        ****     (void)file; /* Parameter is not used, suppress unused argument warning */
 475:main.c        ****     while(count > 0) {
 105              		.loc 1 475 0
 106 0008 12E0     		b	.L8
 107              	.LVL10:
 108              	.L11:
 476:main.c        ****         ch = UART_1_GetChar();
 109              		.loc 1 476 0
 110 000a FFF7FEFF 		bl	UART_1_GetChar
 111              	.LVL11:
 477:main.c        ****         if(ch != 0) {
 112              		.loc 1 477 0
 113 000e 0546     		mov	r5, r0
 114 0010 70B1     		cbz	r0, .L8
 478:main.c        ****             UART_1_PutChar(ch);
 115              		.loc 1 478 0
 116 0012 FFF7FEFF 		bl	UART_1_PutChar
 117              	.LVL12:
 479:main.c        ****             chs++;
 118              		.loc 1 479 0
 119 0016 0136     		adds	r6, r6, #1
 120              	.LVL13:
 480:main.c        ****             if(ch == '\r') {
 121              		.loc 1 480 0
 122 0018 0D2D     		cmp	r5, #13
 123 001a 03D1     		bne	.L9
 124              	.LVL14:
 481:main.c        ****                 ch = '\n';
 482:main.c        ****                 UART_1_PutChar(ch);
 125              		.loc 1 482 0
 126 001c 0A20     		movs	r0, #10
 127 001e FFF7FEFF 		bl	UART_1_PutChar
 128              	.LVL15:
 481:main.c        ****                 ch = '\n';
 129              		.loc 1 481 0
 130 0022 0A25     		movs	r5, #10
 131              	.LVL16:
 132              	.L9:
 483:main.c        ****             }
 484:main.c        ****             *ptr++ = ch;
 133              		.loc 1 484 0
 134 0024 7B1C     		adds	r3, r7, #1
 135              	.LVL17:
 136 0026 3D70     		strb	r5, [r7]
 485:main.c        ****             count--;
 137              		.loc 1 485 0
 138 0028 013C     		subs	r4, r4, #1
 139              	.LVL18:
ARM GAS  C:\Users\conme\AppData\Local\Temp\cctFgczp.s 			page 12


 486:main.c        ****             if(ch == '\n') break;
 140              		.loc 1 486 0
 141 002a 0A2D     		cmp	r5, #10
 142 002c 02D0     		beq	.L10
 484:main.c        ****             count--;
 143              		.loc 1 484 0
 144 002e 1F46     		mov	r7, r3
 145              	.LVL19:
 146              	.L8:
 475:main.c        ****         ch = UART_1_GetChar();
 147              		.loc 1 475 0
 148 0030 002C     		cmp	r4, #0
 149 0032 EADC     		bgt	.L11
 150              	.LVL20:
 151              	.L10:
 487:main.c        ****         }
 488:main.c        ****     }
 489:main.c        ****     return chs;
 490:main.c        **** }
 152              		.loc 1 490 0
 153 0034 3046     		mov	r0, r6
 154 0036 F8BD     		pop	{r3, r4, r5, r6, r7, pc}
 155              		.cfi_endproc
 156              	.LFE65:
 157              		.size	_read, .-_read
 158              		.section	.text.calPID,"ax",%progbits
 159              		.align	2
 160              		.global	calPID
 161              		.thumb
 162              		.thumb_func
 163              		.type	calPID, %function
 164              	calPID:
 165              	.LFB66:
 491:main.c        **** 
 492:main.c        **** int calPID(int error){
 166              		.loc 1 492 0
 167              		.cfi_startproc
 168              		@ args = 0, pretend = 0, frame = 0
 169              		@ frame_needed = 0, uses_anonymous_args = 0
 170              		@ link register save eliminated.
 171              	.LVL21:
 172 0000 30B4     		push	{r4, r5}
 173              		.cfi_def_cfa_offset 8
 174              		.cfi_offset 4, -8
 175              		.cfi_offset 5, -4
 493:main.c        ****     P = error;
 176              		.loc 1 493 0
 177 0002 0A4B     		ldr	r3, .L15
 178 0004 1860     		str	r0, [r3]
 494:main.c        ****     I = I + error;
 179              		.loc 1 494 0
 180 0006 5968     		ldr	r1, [r3, #4]
 181 0008 0144     		add	r1, r1, r0
 182 000a 5960     		str	r1, [r3, #4]
 495:main.c        ****     D = error - p_err;
 183              		.loc 1 495 0
 184 000c 9A68     		ldr	r2, [r3, #8]
ARM GAS  C:\Users\conme\AppData\Local\Temp\cctFgczp.s 			page 13


 185 000e 821A     		subs	r2, r0, r2
 186 0010 DA60     		str	r2, [r3, #12]
 496:main.c        ****     p_err = error;
 187              		.loc 1 496 0
 188 0012 9860     		str	r0, [r3, #8]
 497:main.c        ****     return Kp*P + Ki*I + Kd*D;
 189              		.loc 1 497 0
 190 0014 064C     		ldr	r4, .L15+4
 191 0016 2568     		ldr	r5, [r4]
 192 0018 1B69     		ldr	r3, [r3, #16]
 193 001a 03FB01F1 		mul	r1, r3, r1
 194 001e 05FB0010 		mla	r0, r5, r0, r1
 195              	.LVL22:
 196 0022 6368     		ldr	r3, [r4, #4]
 498:main.c        **** }
 197              		.loc 1 498 0
 198 0024 03FB0200 		mla	r0, r3, r2, r0
 199 0028 30BC     		pop	{r4, r5}
 200              		.cfi_restore 5
 201              		.cfi_restore 4
 202              		.cfi_def_cfa_offset 0
 203 002a 7047     		bx	lr
 204              	.L16:
 205              		.align	2
 206              	.L15:
 207 002c 00000000 		.word	.LANCHOR0
 208 0030 00000000 		.word	.LANCHOR1
 209              		.cfi_endproc
 210              	.LFE66:
 211              		.size	calPID, .-calPID
 212              		.section	.text.calError,"ax",%progbits
 213              		.align	2
 214              		.global	calError
 215              		.thumb
 216              		.thumb_func
 217              		.type	calError, %function
 218              	calError:
 219              	.LFB67:
 499:main.c        **** 
 500:main.c        **** int calError(int l3,int l1,int r1,int r3){
 220              		.loc 1 500 0
 221              		.cfi_startproc
 222              		@ args = 0, pretend = 0, frame = 0
 223              		@ frame_needed = 0, uses_anonymous_args = 0
 224              		@ link register save eliminated.
 225              	.LVL23:
 501:main.c        ****     int err = l3*1 + l1*2+r1*4+r3*8;
 226              		.loc 1 501 0
 227 0000 00EB4101 		add	r1, r0, r1, lsl #1
 228              	.LVL24:
 229 0004 01EB8202 		add	r2, r1, r2, lsl #2
 230              	.LVL25:
 231 0008 02EBC303 		add	r3, r2, r3, lsl #3
 232              	.LVL26:
 502:main.c        ****     if(err!=15){
 233              		.loc 1 502 0
 234 000c 0F2B     		cmp	r3, #15
ARM GAS  C:\Users\conme\AppData\Local\Temp\cctFgczp.s 			page 14


 235 000e 02D0     		beq	.L18
 503:main.c        ****         count_zero=0;
 236              		.loc 1 503 0
 237 0010 0021     		movs	r1, #0
 238 0012 134A     		ldr	r2, .L30
 239 0014 5161     		str	r1, [r2, #20]
 240              	.L18:
 504:main.c        ****     }
 505:main.c        ****     switch(err){
 241              		.loc 1 505 0
 242 0016 033B     		subs	r3, r3, #3
 243              	.LVL27:
 244 0018 0C2B     		cmp	r3, #12
 245 001a 1DD8     		bhi	.L19
 246 001c DFE803F0 		tbb	[pc, r3]
 247              	.L21:
 248 0020 1E       		.byte	(.L29-.L21)/2
 249 0021 1C       		.byte	(.L19-.L21)/2
 250 0022 1C       		.byte	(.L19-.L21)/2
 251 0023 1C       		.byte	(.L19-.L21)/2
 252 0024 07       		.byte	(.L22-.L21)/2
 253 0025 1C       		.byte	(.L19-.L21)/2
 254 0026 0B       		.byte	(.L23-.L21)/2
 255 0027 1C       		.byte	(.L19-.L21)/2
 256 0028 09       		.byte	(.L24-.L21)/2
 257 0029 10       		.byte	(.L25-.L21)/2
 258 002a 0D       		.byte	(.L26-.L21)/2
 259 002b 13       		.byte	(.L27-.L21)/2
 260 002c 16       		.byte	(.L28-.L21)/2
 261 002d 00       		.p2align 1
 262              	.L22:
 506:main.c        ****         case 7:
 507:main.c        ****         return 3;
 263              		.loc 1 507 0
 264 002e 0320     		movs	r0, #3
 265              	.LVL28:
 266 0030 7047     		bx	lr
 267              	.LVL29:
 268              	.L24:
 508:main.c        ****         case 3:
 509:main.c        ****         return 5;
 510:main.c        ****         case 11:
 511:main.c        ****         return 1;
 269              		.loc 1 511 0
 270 0032 0120     		movs	r0, #1
 271              	.LVL30:
 272 0034 7047     		bx	lr
 273              	.LVL31:
 274              	.L23:
 512:main.c        ****         case 9:
 513:main.c        ****         return 0;
 275              		.loc 1 513 0
 276 0036 0020     		movs	r0, #0
 277              	.LVL32:
 278 0038 7047     		bx	lr
 279              	.LVL33:
 280              	.L26:
ARM GAS  C:\Users\conme\AppData\Local\Temp\cctFgczp.s 			page 15


 514:main.c        ****         case 13:
 515:main.c        ****         return -1;
 281              		.loc 1 515 0
 282 003a 4FF0FF30 		mov	r0, #-1
 283              	.LVL34:
 284 003e 7047     		bx	lr
 285              	.LVL35:
 286              	.L25:
 516:main.c        ****         case 12:
 517:main.c        ****         return -5;
 287              		.loc 1 517 0
 288 0040 6FF00400 		mvn	r0, #4
 289              	.LVL36:
 290 0044 7047     		bx	lr
 291              	.LVL37:
 292              	.L27:
 518:main.c        ****         case 14:
 519:main.c        ****         return -3;
 293              		.loc 1 519 0
 294 0046 6FF00200 		mvn	r0, #2
 295              	.LVL38:
 296 004a 7047     		bx	lr
 297              	.LVL39:
 298              	.L28:
 520:main.c        ****         case 15:
 521:main.c        ****         count_zero++;
 299              		.loc 1 521 0
 300 004c 044B     		ldr	r3, .L30
 301              	.LVL40:
 302 004e 5A69     		ldr	r2, [r3, #20]
 303 0050 0132     		adds	r2, r2, #1
 304 0052 5A61     		str	r2, [r3, #20]
 522:main.c        ****         return p_err;
 305              		.loc 1 522 0
 306 0054 9868     		ldr	r0, [r3, #8]
 307              	.LVL41:
 308 0056 7047     		bx	lr
 309              	.LVL42:
 310              	.L19:
 523:main.c        ****         default:
 524:main.c        ****         return 0;
 311              		.loc 1 524 0
 312 0058 0020     		movs	r0, #0
 313              	.LVL43:
 314 005a 7047     		bx	lr
 315              	.LVL44:
 316              	.L29:
 509:main.c        ****         case 11:
 317              		.loc 1 509 0
 318 005c 0520     		movs	r0, #5
 319              	.LVL45:
 525:main.c        ****     }
 526:main.c        **** }
 320              		.loc 1 526 0
 321 005e 7047     		bx	lr
 322              	.L31:
 323              		.align	2
ARM GAS  C:\Users\conme\AppData\Local\Temp\cctFgczp.s 			page 16


 324              	.L30:
 325 0060 00000000 		.word	.LANCHOR0
 326              		.cfi_endproc
 327              	.LFE67:
 328              		.size	calError, .-calError
 329              		.global	__aeabi_fmul
 330              		.global	__aeabi_f2d
 331              		.global	__aeabi_fcmplt
 332              		.section	.text.main,"ax",%progbits
 333              		.align	2
 334              		.global	main
 335              		.thumb
 336              		.thumb_func
 337              		.type	main, %function
 338              	main:
 339              	.LFB63:
 107:main.c        ****     struct sensors_ ref;
 340              		.loc 1 107 0
 341              		.cfi_startproc
 342              		@ args = 0, pretend = 0, frame = 16
 343              		@ frame_needed = 0, uses_anonymous_args = 0
 344 0000 30B5     		push	{r4, r5, lr}
 345              		.cfi_def_cfa_offset 12
 346              		.cfi_offset 4, -12
 347              		.cfi_offset 5, -8
 348              		.cfi_offset 14, -4
 349 0002 85B0     		sub	sp, sp, #20
 350              		.cfi_def_cfa_offset 32
 110:main.c        ****     UART_1_Start();
 351              		.loc 1 110 0
 352              	@ 110 "main.c" 1
 353 0004 62B6     		CPSIE   i
 354              	@ 0 "" 2
 111:main.c        ****     sensor_isr_StartEx(sensor_isr_handler);
 355              		.loc 1 111 0
 356              		.thumb
 357 0006 FFF7FEFF 		bl	UART_1_Start
 358              	.LVL46:
 112:main.c        ****     CyDelay(5000);
 359              		.loc 1 112 0
 360 000a 4148     		ldr	r0, .L51
 361 000c FFF7FEFF 		bl	sensor_isr_StartEx
 362              	.LVL47:
 113:main.c        ****     reflectance_start();     
 363              		.loc 1 113 0
 364 0010 41F28830 		movw	r0, #5000
 365 0014 FFF7FEFF 		bl	CyDelay
 366              	.LVL48:
 114:main.c        ****     int16 adcresult =0;
 367              		.loc 1 114 0
 368 0018 FFF7FEFF 		bl	reflectance_start
 369              	.LVL49:
 118:main.c        ****     for(;;)
 370              		.loc 1 118 0
 371 001c 0120     		movs	r0, #1
 372 001e FFF7FEFF 		bl	IR_led_Write
 373              	.LVL50:
ARM GAS  C:\Users\conme\AppData\Local\Temp\cctFgczp.s 			page 17


 374              	.L43:
 375              	.LBB2:
 121:main.c        ****         printf("button %d\n",button);
 376              		.loc 1 121 0
 377 0022 FFF7FEFF 		bl	SW1_Read
 378              	.LVL51:
 379 0026 0146     		mov	r1, r0
 380 0028 3A4B     		ldr	r3, .L51+4
 381 002a 1870     		strb	r0, [r3]
 122:main.c        ****         counter_ADC++;
 382              		.loc 1 122 0
 383 002c 3A48     		ldr	r0, .L51+8
 384 002e FFF7FEFF 		bl	printf
 385              	.LVL52:
 123:main.c        ****         if(counter_ADC==10000){            
 386              		.loc 1 123 0
 387 0032 3A4A     		ldr	r2, .L51+12
 388 0034 9369     		ldr	r3, [r2, #24]
 389 0036 0133     		adds	r3, r3, #1
 390 0038 9361     		str	r3, [r2, #24]
 124:main.c        ****             ADC_Battery_Start();   
 391              		.loc 1 124 0
 392 003a 42F21072 		movw	r2, #10000
 393 003e 9342     		cmp	r3, r2
 394 0040 29D1     		bne	.L33
 125:main.c        ****             ADC_Battery_StartConvert();
 395              		.loc 1 125 0
 396 0042 FFF7FEFF 		bl	ADC_Battery_Start
 397              	.LVL53:
 126:main.c        ****             if(ADC_Battery_IsEndConversion(ADC_Battery_WAIT_FOR_RESULT)) {   // wait for get ADC co
 398              		.loc 1 126 0
 399 0046 FFF7FEFF 		bl	ADC_Battery_StartConvert
 400              	.LVL54:
 127:main.c        ****                 adcresult = ADC_Battery_GetResult16();
 401              		.loc 1 127 0
 402 004a 0020     		movs	r0, #0
 403 004c FFF7FEFF 		bl	ADC_Battery_IsEndConversion
 404              	.LVL55:
 405 0050 D0B1     		cbz	r0, .L34
 128:main.c        ****                 volts = 1.5*ADC_Battery_CountsTo_Volts(adcresult);                  // convert valu
 406              		.loc 1 128 0
 407 0052 FFF7FEFF 		bl	ADC_Battery_GetResult16
 408              	.LVL56:
 409 0056 0546     		mov	r5, r0
 410              	.LVL57:
 129:main.c        ****             
 411              		.loc 1 129 0
 412 0058 FFF7FEFF 		bl	ADC_Battery_CountsTo_Volts
 413              	.LVL58:
 414 005c 4FF07F51 		mov	r1, #1069547520
 415 0060 FFF7FEFF 		bl	__aeabi_fmul
 416              	.LVL59:
 417 0064 0446     		mov	r4, r0
 418              	.LVL60:
 131:main.c        ****                 if(volts<4.0){
 419              		.loc 1 131 0
 420 0066 FFF7FEFF 		bl	__aeabi_f2d
ARM GAS  C:\Users\conme\AppData\Local\Temp\cctFgczp.s 			page 18


 421              	.LVL61:
 422 006a 0246     		mov	r2, r0
 423 006c 0B46     		mov	r3, r1
 424 006e 2C48     		ldr	r0, .L51+16
 425 0070 2946     		mov	r1, r5
 426 0072 FFF7FEFF 		bl	printf
 427              	.LVL62:
 132:main.c        ****                     motor_stop();
 428              		.loc 1 132 0
 429 0076 2046     		mov	r0, r4
 430 0078 4FF08141 		mov	r1, #1082130432
 431 007c FFF7FEFF 		bl	__aeabi_fcmplt
 432              	.LVL63:
 433 0080 10B1     		cbz	r0, .L34
 133:main.c        ****                     return 0;
 434              		.loc 1 133 0
 435 0082 FFF7FEFF 		bl	motor_stop
 436              	.LVL64:
 134:main.c        ****                 }
 437              		.loc 1 134 0
 438 0086 3FE0     		b	.L36
 439              	.LVL65:
 440              	.L34:
 137:main.c        ****             ADC_Battery_StopConvert();
 441              		.loc 1 137 0
 442 0088 0022     		movs	r2, #0
 443 008a 244B     		ldr	r3, .L51+12
 444 008c 9A61     		str	r2, [r3, #24]
 138:main.c        ****             ADC_Battery_Stop();
 445              		.loc 1 138 0
 446 008e FFF7FEFF 		bl	ADC_Battery_StopConvert
 447              	.LVL66:
 139:main.c        ****         }
 448              		.loc 1 139 0
 449 0092 FFF7FEFF 		bl	ADC_Battery_Stop
 450              	.LVL67:
 451              	.L33:
 141:main.c        ****         reflectance_digital(&dig); 
 452              		.loc 1 141 0
 453 0096 02A8     		add	r0, sp, #8
 454 0098 FFF7FEFF 		bl	reflectance_read
 455              	.LVL68:
 142:main.c        ****         /*printf("%d %d %d %d \r\n", ref.l3, ref.l1, ref.r1, ref.r3);       //print out each period
 456              		.loc 1 142 0
 457 009c 6846     		mov	r0, sp
 458 009e FFF7FEFF 		bl	reflectance_digital
 459              	.LVL69:
 147:main.c        ****         int motorSpeed = calPID(err);
 460              		.loc 1 147 0
 461 00a2 BDF80000 		ldrh	r0, [sp]
 462 00a6 BDF80210 		ldrh	r1, [sp, #2]
 463 00aa BDF80420 		ldrh	r2, [sp, #4]
 464 00ae BDF80630 		ldrh	r3, [sp, #6]
 465 00b2 FFF7FEFF 		bl	calError
 466              	.LVL70:
 467 00b6 0446     		mov	r4, r0
 468              	.LVL71:
ARM GAS  C:\Users\conme\AppData\Local\Temp\cctFgczp.s 			page 19


 148:main.c        ****         
 469              		.loc 1 148 0
 470 00b8 FFF7FEFF 		bl	calPID
 471              	.LVL72:
 150:main.c        ****         int leftMotorSpeed = 235 + motorSpeed;
 472              		.loc 1 150 0
 473 00bc C0F1EB01 		rsb	r1, r0, #235
 474              	.LVL73:
 151:main.c        ****         
 475              		.loc 1 151 0
 476 00c0 EB30     		adds	r0, r0, #235
 477              	.LVL74:
 153:main.c        ****            rightMotorSpeed = 255;
 478              		.loc 1 153 0
 479 00c2 092C     		cmp	r4, #9
 480 00c4 01D1     		bne	.L37
 155:main.c        ****         }
 481              		.loc 1 155 0
 482 00c6 FF20     		movs	r0, #255
 483              	.LVL75:
 154:main.c        ****            leftMotorSpeed = 255;
 484              		.loc 1 154 0
 485 00c8 0146     		mov	r1, r0
 486              	.LVL76:
 487              	.L37:
 158:main.c        ****             rightMotorSpeed = 255;
 488              		.loc 1 158 0
 489 00ca FF29     		cmp	r1, #255
 490 00cc 00DD     		ble	.L38
 159:main.c        ****         if(rightMotorSpeed < 0)
 491              		.loc 1 159 0
 492 00ce FF21     		movs	r1, #255
 493              	.LVL77:
 494              	.L38:
 160:main.c        ****             rightMotorSpeed = 0;
 495              		.loc 1 160 0
 496 00d0 0029     		cmp	r1, #0
 497 00d2 00DA     		bge	.L39
 161:main.c        ****         if(leftMotorSpeed > 255)
 498              		.loc 1 161 0
 499 00d4 0021     		movs	r1, #0
 500              	.LVL78:
 501              	.L39:
 162:main.c        ****             leftMotorSpeed = 255;
 502              		.loc 1 162 0
 503 00d6 FF28     		cmp	r0, #255
 504 00d8 00DD     		ble	.L40
 163:main.c        ****         if(leftMotorSpeed < 0)
 505              		.loc 1 163 0
 506 00da FF20     		movs	r0, #255
 507              	.LVL79:
 508              	.L40:
 164:main.c        ****             leftMotorSpeed = 0;
 509              		.loc 1 164 0
 510 00dc 0028     		cmp	r0, #0
 511 00de 00DA     		bge	.L41
 165:main.c        ****         
ARM GAS  C:\Users\conme\AppData\Local\Temp\cctFgczp.s 			page 20


 512              		.loc 1 165 0
 513 00e0 0020     		movs	r0, #0
 514              	.LVL80:
 515              	.L41:
 167:main.c        ****         
 516              		.loc 1 167 0
 517 00e2 C0B2     		uxtb	r0, r0
 518              	.LVL81:
 519 00e4 C9B2     		uxtb	r1, r1
 520              	.LVL82:
 521 00e6 0022     		movs	r2, #0
 522 00e8 FFF7FEFF 		bl	motor_turn
 523              	.LVL83:
 169:main.c        ****             motor_stop();
 524              		.loc 1 169 0
 525 00ec 0B4B     		ldr	r3, .L51+12
 526 00ee 5B69     		ldr	r3, [r3, #20]
 527 00f0 B3F57A7F 		cmp	r3, #1000
 528 00f4 02DD     		ble	.L42
 170:main.c        ****             return 0;
 529              		.loc 1 170 0
 530 00f6 FFF7FEFF 		bl	motor_stop
 531              	.LVL84:
 171:main.c        ****         }
 532              		.loc 1 171 0
 533 00fa 05E0     		b	.L36
 534              	.L42:
 174:main.c        ****         
 535              		.loc 1 174 0
 536 00fc FFF7FEFF 		bl	motor_start
 537              	.LVL85:
 176:main.c        ****     }
 538              		.loc 1 176 0
 539 0100 0120     		movs	r0, #1
 540 0102 FFF7FEFF 		bl	CyDelay
 541              	.LVL86:
 542              	.LBE2:
 177:main.c        ****     return 0;
 543              		.loc 1 177 0
 544 0106 8CE7     		b	.L43
 545              	.LVL87:
 546              	.L36:
 179:main.c        **** 
 547              		.loc 1 179 0
 548 0108 0020     		movs	r0, #0
 549 010a 05B0     		add	sp, sp, #20
 550              		.cfi_def_cfa_offset 12
 551              		@ sp needed
 552 010c 30BD     		pop	{r4, r5, pc}
 553              	.L52:
 554 010e 00BF     		.align	2
 555              	.L51:
 556 0110 00000000 		.word	sensor_isr_handler
 557 0114 00000000 		.word	button
 558 0118 00000000 		.word	.LC0
 559 011c 00000000 		.word	.LANCHOR0
 560 0120 0C000000 		.word	.LC1
ARM GAS  C:\Users\conme\AppData\Local\Temp\cctFgczp.s 			page 21


 561              		.cfi_endproc
 562              	.LFE63:
 563              		.size	main, .-main
 564              		.comm	button,1,1
 565              		.global	counter_ADC
 566              		.global	count_zero
 567              		.global	Kd
 568              		.global	Ki
 569              		.global	Kp
 570              		.global	p_err
 571              		.global	D
 572              		.global	I
 573              		.global	P
 574              		.data
 575              		.align	2
 576              		.set	.LANCHOR1,. + 0
 577              		.type	Kp, %object
 578              		.size	Kp, 4
 579              	Kp:
 580 0000 64000000 		.word	100
 581              		.type	Kd, %object
 582              		.size	Kd, 4
 583              	Kd:
 584 0004 32000000 		.word	50
 585              		.section	.rodata.str1.4,"aMS",%progbits,1
 586              		.align	2
 587              	.LC0:
 588 0000 62757474 		.ascii	"button %d\012\000"
 588      6F6E2025 
 588      640A00
 589 000b 00       		.space	1
 590              	.LC1:
 591 000c 25642025 		.ascii	"%d %f\015\012\000"
 591      660D0A00 
 592              		.bss
 593              		.align	2
 594              		.set	.LANCHOR0,. + 0
 595              		.type	P, %object
 596              		.size	P, 4
 597              	P:
 598 0000 00000000 		.space	4
 599              		.type	I, %object
 600              		.size	I, 4
 601              	I:
 602 0004 00000000 		.space	4
 603              		.type	p_err, %object
 604              		.size	p_err, 4
 605              	p_err:
 606 0008 00000000 		.space	4
 607              		.type	D, %object
 608              		.size	D, 4
 609              	D:
 610 000c 00000000 		.space	4
 611              		.type	Ki, %object
 612              		.size	Ki, 4
 613              	Ki:
 614 0010 00000000 		.space	4
ARM GAS  C:\Users\conme\AppData\Local\Temp\cctFgczp.s 			page 22


 615              		.type	count_zero, %object
 616              		.size	count_zero, 4
 617              	count_zero:
 618 0014 00000000 		.space	4
 619              		.type	counter_ADC, %object
 620              		.size	counter_ADC, 4
 621              	counter_ADC:
 622 0018 00000000 		.space	4
 623              		.text
 624              	.Letext0:
 625              		.file 2 "c:\\program files (x86)\\cypress\\psoc creator\\4.0\\psoc creator\\import\\gnu\\arm\\4.9.
 626              		.file 3 "c:\\program files (x86)\\cypress\\psoc creator\\4.0\\psoc creator\\import\\gnu\\arm\\4.9.
 627              		.file 4 "Generated_Source\\PSoC5/cytypes.h"
 628              		.file 5 ".\\ZumoLibrary/Reflectance.h"
 629              		.file 6 "Generated_Source\\PSoC5/core_cm3.h"
 630              		.file 7 "Generated_Source\\PSoC5/UART_1.h"
 631              		.file 8 "Generated_Source\\PSoC5/SW1.h"
 632              		.file 9 "Generated_Source\\PSoC5/ADC_Battery.h"
 633              		.file 10 "c:\\program files (x86)\\cypress\\psoc creator\\4.0\\psoc creator\\import\\gnu\\arm\\4.9
 634              		.file 11 ".\\ZumoLibrary/Motor.h"
 635              		.file 12 "Generated_Source\\PSoC5/CyLib.h"
 636              		.file 13 "Generated_Source\\PSoC5/sensor_isr.h"
 637              		.file 14 "Generated_Source\\PSoC5/IR_led.h"