ARM GAS  C:\Users\conme\AppData\Local\Temp\ccHlwULm.s 			page 1


   1              		.syntax unified
   2              		.cpu cortex-m3
   3              		.fpu softvfp
   4              		.eabi_attribute 20, 1
   5              		.eabi_attribute 21, 1
   6              		.eabi_attribute 23, 3
   7              		.eabi_attribute 24, 1
   8              		.eabi_attribute 25, 1
   9              		.eabi_attribute 26, 1
  10              		.eabi_attribute 30, 1
  11              		.eabi_attribute 34, 1
  12              		.eabi_attribute 18, 4
  13              		.thumb
  14              		.file	"Motor.c"
  15              		.text
  16              	.Ltext0:
  17              		.cfi_sections	.debug_frame
  18              		.section	.text.motor_start,"ax",%progbits
  19              		.align	2
  20              		.global	motor_start
  21              		.thumb
  22              		.thumb_func
  23              		.type	motor_start, %function
  24              	motor_start:
  25              	.LFB63:
  26              		.file 1 "ZumoLibrary\\Motor.c"
   1:ZumoLibrary/Motor.c **** /**
   2:ZumoLibrary/Motor.c ****  * @file    Motor.c
   3:ZumoLibrary/Motor.c ****  * @brief   Basic methods for operating motor sensor. For more details, please refer to Motor.h fil
   4:ZumoLibrary/Motor.c ****  * @details included in Zumo shield
   5:ZumoLibrary/Motor.c **** */
   6:ZumoLibrary/Motor.c **** #include "Motor.h"
   7:ZumoLibrary/Motor.c **** 
   8:ZumoLibrary/Motor.c **** 
   9:ZumoLibrary/Motor.c **** /**
  10:ZumoLibrary/Motor.c **** * @brief    Starting motor sensors
  11:ZumoLibrary/Motor.c **** * @details  
  12:ZumoLibrary/Motor.c **** */
  13:ZumoLibrary/Motor.c **** void motor_start()
  14:ZumoLibrary/Motor.c **** {
  27              		.loc 1 14 0
  28              		.cfi_startproc
  29              		@ args = 0, pretend = 0, frame = 0
  30              		@ frame_needed = 0, uses_anonymous_args = 0
  31 0000 08B5     		push	{r3, lr}
  32              		.cfi_def_cfa_offset 8
  33              		.cfi_offset 3, -8
  34              		.cfi_offset 14, -4
  15:ZumoLibrary/Motor.c ****     PWM_Start();
  35              		.loc 1 15 0
  36 0002 FFF7FEFF 		bl	PWM_Start
  37              	.LVL0:
  38 0006 08BD     		pop	{r3, pc}
  39              		.cfi_endproc
  40              	.LFE63:
  41              		.size	motor_start, .-motor_start
  42              		.section	.text.motor_stop,"ax",%progbits
ARM GAS  C:\Users\conme\AppData\Local\Temp\ccHlwULm.s 			page 2


  43              		.align	2
  44              		.global	motor_stop
  45              		.thumb
  46              		.thumb_func
  47              		.type	motor_stop, %function
  48              	motor_stop:
  49              	.LFB64:
  16:ZumoLibrary/Motor.c **** }
  17:ZumoLibrary/Motor.c **** 
  18:ZumoLibrary/Motor.c **** 
  19:ZumoLibrary/Motor.c **** /**
  20:ZumoLibrary/Motor.c **** * @brief    Stopping motor sensors
  21:ZumoLibrary/Motor.c **** * @details
  22:ZumoLibrary/Motor.c **** */
  23:ZumoLibrary/Motor.c **** void motor_stop()
  24:ZumoLibrary/Motor.c **** {
  50              		.loc 1 24 0
  51              		.cfi_startproc
  52              		@ args = 0, pretend = 0, frame = 0
  53              		@ frame_needed = 0, uses_anonymous_args = 0
  54 0000 08B5     		push	{r3, lr}
  55              		.cfi_def_cfa_offset 8
  56              		.cfi_offset 3, -8
  57              		.cfi_offset 14, -4
  25:ZumoLibrary/Motor.c ****     PWM_Stop();
  58              		.loc 1 25 0
  59 0002 FFF7FEFF 		bl	PWM_Stop
  60              	.LVL1:
  61 0006 08BD     		pop	{r3, pc}
  62              		.cfi_endproc
  63              	.LFE64:
  64              		.size	motor_stop, .-motor_stop
  65              		.section	.text.motor_forward,"ax",%progbits
  66              		.align	2
  67              		.global	motor_forward
  68              		.thumb
  69              		.thumb_func
  70              		.type	motor_forward, %function
  71              	motor_forward:
  72              	.LFB65:
  26:ZumoLibrary/Motor.c **** }
  27:ZumoLibrary/Motor.c **** 
  28:ZumoLibrary/Motor.c **** 
  29:ZumoLibrary/Motor.c **** /**
  30:ZumoLibrary/Motor.c **** * @brief    Moving motors forward
  31:ZumoLibrary/Motor.c **** * @details  giveing same speed to each side of PWM to make motors go forward
  32:ZumoLibrary/Motor.c **** * @param    uint8 speed : speed value
  33:ZumoLibrary/Motor.c **** * @param    uint32 delay : delay time
  34:ZumoLibrary/Motor.c **** */
  35:ZumoLibrary/Motor.c **** void motor_forward(uint8 speed,uint32 delay)
  36:ZumoLibrary/Motor.c **** {
  73              		.loc 1 36 0
  74              		.cfi_startproc
  75              		@ args = 0, pretend = 0, frame = 0
  76              		@ frame_needed = 0, uses_anonymous_args = 0
  77              	.LVL2:
  78 0000 38B5     		push	{r3, r4, r5, lr}
ARM GAS  C:\Users\conme\AppData\Local\Temp\ccHlwULm.s 			page 3


  79              		.cfi_def_cfa_offset 16
  80              		.cfi_offset 3, -16
  81              		.cfi_offset 4, -12
  82              		.cfi_offset 5, -8
  83              		.cfi_offset 14, -4
  84 0002 0446     		mov	r4, r0
  85 0004 0D46     		mov	r5, r1
  37:ZumoLibrary/Motor.c ****     MotorDirLeft_Write(0);      // set LeftMotor forward mode
  86              		.loc 1 37 0
  87 0006 0020     		movs	r0, #0
  88              	.LVL3:
  89 0008 FFF7FEFF 		bl	MotorDirLeft_Write
  90              	.LVL4:
  38:ZumoLibrary/Motor.c ****     MotorDirRight_Write(0);     // set RightMotor forward mode
  91              		.loc 1 38 0
  92 000c 0020     		movs	r0, #0
  93 000e FFF7FEFF 		bl	MotorDirRight_Write
  94              	.LVL5:
  39:ZumoLibrary/Motor.c ****     PWM_WriteCompare1(speed); 
  95              		.loc 1 39 0
  96 0012 2046     		mov	r0, r4
  97 0014 FFF7FEFF 		bl	PWM_WriteCompare1
  98              	.LVL6:
  40:ZumoLibrary/Motor.c ****     PWM_WriteCompare2(speed); 
  99              		.loc 1 40 0
 100 0018 2046     		mov	r0, r4
 101 001a FFF7FEFF 		bl	PWM_WriteCompare2
 102              	.LVL7:
  41:ZumoLibrary/Motor.c ****     CyDelay(delay);
 103              		.loc 1 41 0
 104 001e 2846     		mov	r0, r5
 105 0020 FFF7FEFF 		bl	CyDelay
 106              	.LVL8:
 107 0024 38BD     		pop	{r3, r4, r5, pc}
 108              		.cfi_endproc
 109              	.LFE65:
 110              		.size	motor_forward, .-motor_forward
 111 0026 00BF     		.section	.text.motor_turn_90,"ax",%progbits
 112              		.align	2
 113              		.global	motor_turn_90
 114              		.thumb
 115              		.thumb_func
 116              		.type	motor_turn_90, %function
 117              	motor_turn_90:
 118              	.LFB66:
  42:ZumoLibrary/Motor.c **** }
  43:ZumoLibrary/Motor.c **** 
  44:ZumoLibrary/Motor.c **** void motor_turn_90(uint8 speed, uint32 delay){
 119              		.loc 1 44 0
 120              		.cfi_startproc
 121              		@ args = 0, pretend = 0, frame = 0
 122              		@ frame_needed = 0, uses_anonymous_args = 0
 123              	.LVL9:
 124 0000 38B5     		push	{r3, r4, r5, lr}
 125              		.cfi_def_cfa_offset 16
 126              		.cfi_offset 3, -16
 127              		.cfi_offset 4, -12
ARM GAS  C:\Users\conme\AppData\Local\Temp\ccHlwULm.s 			page 4


 128              		.cfi_offset 5, -8
 129              		.cfi_offset 14, -4
 130 0002 0446     		mov	r4, r0
 131 0004 0D46     		mov	r5, r1
  45:ZumoLibrary/Motor.c ****     MotorDirLeft_Write(0);      // set LeftMotor forward mode
 132              		.loc 1 45 0
 133 0006 0020     		movs	r0, #0
 134              	.LVL10:
 135 0008 FFF7FEFF 		bl	MotorDirLeft_Write
 136              	.LVL11:
  46:ZumoLibrary/Motor.c ****     MotorDirRight_Write(1);     // set RightMotor forward mode
 137              		.loc 1 46 0
 138 000c 0120     		movs	r0, #1
 139 000e FFF7FEFF 		bl	MotorDirRight_Write
 140              	.LVL12:
  47:ZumoLibrary/Motor.c ****     PWM_WriteCompare1(speed); 
 141              		.loc 1 47 0
 142 0012 2046     		mov	r0, r4
 143 0014 FFF7FEFF 		bl	PWM_WriteCompare1
 144              	.LVL13:
  48:ZumoLibrary/Motor.c ****     PWM_WriteCompare2(speed); 
 145              		.loc 1 48 0
 146 0018 2046     		mov	r0, r4
 147 001a FFF7FEFF 		bl	PWM_WriteCompare2
 148              	.LVL14:
  49:ZumoLibrary/Motor.c ****     CyDelay(delay);
 149              		.loc 1 49 0
 150 001e 2846     		mov	r0, r5
 151 0020 FFF7FEFF 		bl	CyDelay
 152              	.LVL15:
 153 0024 38BD     		pop	{r3, r4, r5, pc}
 154              		.cfi_endproc
 155              	.LFE66:
 156              		.size	motor_turn_90, .-motor_turn_90
 157 0026 00BF     		.section	.text.motor_turn,"ax",%progbits
 158              		.align	2
 159              		.global	motor_turn
 160              		.thumb
 161              		.thumb_func
 162              		.type	motor_turn, %function
 163              	motor_turn:
 164              	.LFB67:
  50:ZumoLibrary/Motor.c **** }
  51:ZumoLibrary/Motor.c **** 
  52:ZumoLibrary/Motor.c **** /**
  53:ZumoLibrary/Motor.c **** * @brief    Moving motors to make a turn 
  54:ZumoLibrary/Motor.c **** * @details  moving left when l_speed < r_speed or moving right when l_speed > r_speed
  55:ZumoLibrary/Motor.c **** * @param    uint8 l_speed : left motor speed value
  56:ZumoLibrary/Motor.c **** * @param    uint8 r_speed : right motor speed value
  57:ZumoLibrary/Motor.c **** * @param    uint32 delay : delay time
  58:ZumoLibrary/Motor.c **** */
  59:ZumoLibrary/Motor.c **** void motor_turn(uint8 l_speed, uint8 r_speed, uint32 delay)
  60:ZumoLibrary/Motor.c **** {
 165              		.loc 1 60 0
 166              		.cfi_startproc
 167              		@ args = 0, pretend = 0, frame = 0
 168              		@ frame_needed = 0, uses_anonymous_args = 0
ARM GAS  C:\Users\conme\AppData\Local\Temp\ccHlwULm.s 			page 5


 169              	.LVL16:
 170 0000 38B5     		push	{r3, r4, r5, lr}
 171              		.cfi_def_cfa_offset 16
 172              		.cfi_offset 3, -16
 173              		.cfi_offset 4, -12
 174              		.cfi_offset 5, -8
 175              		.cfi_offset 14, -4
 176 0002 0D46     		mov	r5, r1
 177 0004 1446     		mov	r4, r2
  61:ZumoLibrary/Motor.c ****     PWM_WriteCompare1(l_speed); 
 178              		.loc 1 61 0
 179 0006 FFF7FEFF 		bl	PWM_WriteCompare1
 180              	.LVL17:
  62:ZumoLibrary/Motor.c ****     PWM_WriteCompare2(r_speed); 
 181              		.loc 1 62 0
 182 000a 2846     		mov	r0, r5
 183 000c FFF7FEFF 		bl	PWM_WriteCompare2
 184              	.LVL18:
  63:ZumoLibrary/Motor.c ****     CyDelay(delay);
 185              		.loc 1 63 0
 186 0010 2046     		mov	r0, r4
 187 0012 FFF7FEFF 		bl	CyDelay
 188              	.LVL19:
 189 0016 38BD     		pop	{r3, r4, r5, pc}
 190              		.cfi_endproc
 191              	.LFE67:
 192              		.size	motor_turn, .-motor_turn
 193              		.section	.text.motor_backward,"ax",%progbits
 194              		.align	2
 195              		.global	motor_backward
 196              		.thumb
 197              		.thumb_func
 198              		.type	motor_backward, %function
 199              	motor_backward:
 200              	.LFB68:
  64:ZumoLibrary/Motor.c **** }
  65:ZumoLibrary/Motor.c **** 
  66:ZumoLibrary/Motor.c **** 
  67:ZumoLibrary/Motor.c **** /**
  68:ZumoLibrary/Motor.c **** * @brief    Moving motors backward
  69:ZumoLibrary/Motor.c **** * @details  setting backward mode to each motors and gives same speed to each side of PWM
  70:ZumoLibrary/Motor.c **** * @param    uint8 speed : speed value
  71:ZumoLibrary/Motor.c **** * @param    uint32 delay : delay time
  72:ZumoLibrary/Motor.c **** */
  73:ZumoLibrary/Motor.c **** void motor_backward(uint8 speed,uint32 delay)
  74:ZumoLibrary/Motor.c **** {
 201              		.loc 1 74 0
 202              		.cfi_startproc
 203              		@ args = 0, pretend = 0, frame = 0
 204              		@ frame_needed = 0, uses_anonymous_args = 0
 205              	.LVL20:
 206 0000 38B5     		push	{r3, r4, r5, lr}
 207              		.cfi_def_cfa_offset 16
 208              		.cfi_offset 3, -16
 209              		.cfi_offset 4, -12
 210              		.cfi_offset 5, -8
 211              		.cfi_offset 14, -4
ARM GAS  C:\Users\conme\AppData\Local\Temp\ccHlwULm.s 			page 6


 212 0002 0446     		mov	r4, r0
 213 0004 0D46     		mov	r5, r1
  75:ZumoLibrary/Motor.c ****     MotorDirLeft_Write(1);      // set LeftMotor backward mode
 214              		.loc 1 75 0
 215 0006 0120     		movs	r0, #1
 216              	.LVL21:
 217 0008 FFF7FEFF 		bl	MotorDirLeft_Write
 218              	.LVL22:
  76:ZumoLibrary/Motor.c ****     MotorDirRight_Write(1);     // set RightMotor backward mode
 219              		.loc 1 76 0
 220 000c 0120     		movs	r0, #1
 221 000e FFF7FEFF 		bl	MotorDirRight_Write
 222              	.LVL23:
  77:ZumoLibrary/Motor.c ****     PWM_WriteCompare1(speed); 
 223              		.loc 1 77 0
 224 0012 2046     		mov	r0, r4
 225 0014 FFF7FEFF 		bl	PWM_WriteCompare1
 226              	.LVL24:
  78:ZumoLibrary/Motor.c ****     PWM_WriteCompare2(speed); 
 227              		.loc 1 78 0
 228 0018 2046     		mov	r0, r4
 229 001a FFF7FEFF 		bl	PWM_WriteCompare2
 230              	.LVL25:
  79:ZumoLibrary/Motor.c ****     CyDelay(delay);
 231              		.loc 1 79 0
 232 001e 2846     		mov	r0, r5
 233 0020 FFF7FEFF 		bl	CyDelay
 234              	.LVL26:
 235 0024 38BD     		pop	{r3, r4, r5, pc}
 236              		.cfi_endproc
 237              	.LFE68:
 238              		.size	motor_backward, .-motor_backward
 239 0026 00BF     		.text
 240              	.Letext0:
 241              		.file 2 "c:\\program files (x86)\\cypress\\psoc creator\\4.0\\psoc creator\\import\\gnu\\arm\\4.9.
 242              		.file 3 "c:\\program files (x86)\\cypress\\psoc creator\\4.0\\psoc creator\\import\\gnu\\arm\\4.9.
 243              		.file 4 "Generated_Source\\PSoC5/cytypes.h"
 244              		.file 5 "Generated_Source\\PSoC5/PWM.h"
 245              		.file 6 "Generated_Source\\PSoC5/MotorDirLeft.h"
 246              		.file 7 "Generated_Source\\PSoC5/MotorDirRight.h"
 247              		.file 8 "Generated_Source\\PSoC5/core_cm3.h"
 248              		.file 9 "Generated_Source\\PSoC5/CyLib.h"